; Function Attrs: mustprogress nounwind uwtable
define dso_local noundef zeroext i1 @_ZNK4llvm13DominatorTree9dominatesEPKNS_10BasicBlockERKNS_3UseE(ptr noundef nonnull align 8 dereferenceable(124) %0, ptr noundef %1, ptr noundef nonnull align 8 dereferenceable(32) %2) local_unnamed_addr #0 align 2 {
  %4 = getelementptr inbounds nuw i8, ptr %2, i64 24
  %5 = load ptr, ptr %4, align 8
  %6 = load i8, ptr %5, align 8
  %.not = icmp eq i8 %6, 84
  br i1 %.not, label %7, label %22

7:                                                ; preds = %3
  %8 = getelementptr inbounds i8, ptr %5, i64 -8
  %9 = load ptr, ptr %8, align 8
  %10 = ptrtoint ptr %2 to i64
  %11 = ptrtoint ptr %9 to i64
  %12 = sub i64 %10, %11
  %13 = lshr exact i64 %12, 5
  %14 = getelementptr inbounds nuw i8, ptr %5, i64 72
  %15 = load i32, ptr %14, align 8
  %16 = zext i32 %15 to i64
  %17 = getelementptr inbounds %"class.llvm::Use", ptr %9, i64 %16
  %18 = and i64 %13, 4294967295
  %19 = getelementptr inbounds ptr, ptr %17, i64 %18
  %20 = load ptr, ptr %19, align 8
  %21 = tail call noundef zeroext i1 @_ZNK4llvm17DominatorTreeBaseINS_10BasicBlockELb0EE9dominatesEPKS1_S4_(ptr noundef nonnull align 8 dereferenceable(124) %0, ptr noundef %1, ptr noundef %20)
  br label %26

22:                                               ; preds = %3
  %23 = getelementptr inbounds i8, ptr %5, i64 40
  %24 = load ptr, ptr %23, align 8
  %25 = tail call noundef zeroext i1 @_ZNK4llvm17DominatorTreeBaseINS_10BasicBlockELb0EE17properlyDominatesEPKS1_S4_(ptr noundef nonnull align 8 dereferenceable(124) %0, ptr noundef %1, ptr noundef %24)
  br label %26

26:                                               ; preds = %22, %7
  %.0 = phi i1 [ %21, %7 ], [ %25, %22 ]
  ret i1 %.0
}